target datalayout = "e-m:e-p270:32:32-p271:32:32-p272:64:64-i64:64-i128:128-f80:128-n8:16:32:64-S128"
target triple = "x86_64-pc-linux-gnu"

%struct.hb_object_header_t = type { %struct.hb_reference_count_t, %struct.hb_atomic_int_t, %struct.hb_atomic_ptr_t }
%struct.hb_reference_count_t = type { %struct.hb_atomic_int_t }
%struct.hb_atomic_int_t = type { i32 }
%struct.hb_atomic_ptr_t = type { ptr }
%struct.hb_segment_properties_t = type { i32, i32, ptr, ptr, ptr }
%struct.hb_buffer_t = type <{ %struct.hb_object_header_t, ptr, i32, i32, i32, i32, i32, i32, %struct.hb_segment_properties_t, i8, i8, i8, i8, i32, i32, i32, i32, [4 x i8], ptr, ptr, ptr, [2 x [5 x i32]], [2 x i32], i8, i8, [2 x i8], i32, i32, i32, ptr, ptr, ptr, i32, [4 x i8] }>

; Function Attrs: mustprogress nounwind uwtable
define hidden void @_ZN11hb_buffer_t12clear_outputEv(ptr noundef nonnull align 8 dereferenceable(220) %0) #0 align 2 {
  %2 = alloca ptr, align 8
  store ptr %0, ptr %2, align 8
  %3 = load ptr, ptr %2, align 8
  %4 = getelementptr inbounds %struct.hb_buffer_t, ptr %3, i32 0, i32 11
  store i8 1, ptr %4, align 2
  %5 = getelementptr inbounds %struct.hb_buffer_t, ptr %3, i32 0, i32 12
  store i8 0, ptr %5, align 1
  %6 = getelementptr inbounds %struct.hb_buffer_t, ptr %3, i32 0, i32 13
  store i32 0, ptr %6, align 4
  %7 = getelementptr inbounds %struct.hb_buffer_t, ptr %3, i32 0, i32 15
  store i32 0, ptr %7, align 4
  %8 = getelementptr inbounds %struct.hb_buffer_t, ptr %3, i32 0, i32 18
  %9 = load ptr, ptr %8, align 8
  %10 = getelementptr inbounds %struct.hb_buffer_t, ptr %3, i32 0, i32 19
  store ptr %9, ptr %10, align 8
  ret void
}