; Function Attrs: mustprogress nofree norecurse nosync nounwind willreturn memory(argmem: readwrite) uwtable
define hidden void @_ZN11hb_buffer_t12clear_outputEv(ptr nocapture noundef nonnull align 8 dereferenceable(220) %0) local_unnamed_addr #1 align 2 {
  %2 = getelementptr inbounds i8, ptr %0, i64 82
  store i8 1, ptr %2, align 2
  %3 = getelementptr inbounds i8, ptr %0, i64 83
  store i8 0, ptr %3, align 1
  %4 = getelementptr inbounds i8, ptr %0, i64 84
  store i32 0, ptr %4, align 4
  %5 = getelementptr inbounds i8, ptr %0, i64 92
  store i32 0, ptr %5, align 4
  %6 = getelementptr inbounds i8, ptr %0, i64 104
  %7 = load ptr, ptr %6, align 8
  %8 = getelementptr inbounds i8, ptr %0, i64 112
  store ptr %7, ptr %8, align 8
  ret void
}